target datalayout = "e-m:e-p270:32:32-p271:32:32-p272:64:64-i64:64-i128:128-f80:128-n8:16:32:64-S128"
target triple = "x86_64-unknown-linux-gnu"

%"class.pugi::xml_node" = type { ptr }
%"struct.pugi::xml_node_struct" = type { i64, ptr, ptr, ptr, ptr, ptr, ptr, ptr }

; Function Attrs: mustprogress nounwind uwtable
define noundef i32 @_ZNK4pugi8xml_node4typeEv(ptr noundef nonnull align 8 dereferenceable(8) %this) #0 align 2 {
entry:
  %this.addr = alloca ptr, align 8
  store ptr %this, ptr %this.addr, align 8
  %this1 = load ptr, ptr %this.addr, align 8
  %_root = getelementptr inbounds %"class.pugi::xml_node", ptr %this1, i32 0, i32 0
  %0 = load ptr, ptr %_root, align 8
  %tobool = icmp ne ptr %0, null
  br i1 %tobool, label %cond.true, label %cond.false

cond.true:                                        ; preds = %entry
  %_root2 = getelementptr inbounds %"class.pugi::xml_node", ptr %this1, i32 0, i32 0
  %1 = load ptr, ptr %_root2, align 8
  %header = getelementptr inbounds %"struct.pugi::xml_node_struct", ptr %1, i32 0, i32 0
  %2 = load i64, ptr %header, align 8
  %and = and i64 %2, 15
  %conv = trunc i64 %and to i32
  br label %cond.end

cond.false:                                       ; preds = %entry
  br label %cond.end

cond.end:                                         ; preds = %cond.false, %cond.true
  %cond = phi i32 [ %conv, %cond.true ], [ 0, %cond.false ]
  ret i32 %cond
}